target datalayout = "e-m:e-p270:32:32-p271:32:32-p272:64:64-i64:64-i128:128-f80:128-n8:16:32:64-S128"
target triple = "x86_64-pc-linux-gnu"

%struct._fvalue_t = type { ptr, %union.anon.1 }
%union.anon.1 = type { %struct._protocol_value_t }
%struct._protocol_value_t = type { ptr, i32, ptr, i8 }
%struct.ipv6_addr_and_prefix = type { %struct.e_in6_addr, i32 }
%struct.e_in6_addr = type { [16 x i8] }

@bitmasks = internal constant [9 x i8] c"\00\80\C0\E0\F0\F8\FC\FE\FF", align 1

; Function Attrs: nounwind null_pointer_is_valid sspstrong uwtable
define internal i32 @bitwise_and(ptr noundef %0, ptr noundef %1, ptr noundef %2, ptr noundef %3) #1 {
  %5 = alloca ptr, align 8
  %6 = alloca ptr, align 8
  %7 = alloca ptr, align 8
  %8 = alloca ptr, align 8
  %9 = alloca ptr, align 8
  %10 = alloca ptr, align 8
  %11 = alloca i32, align 4
  %12 = alloca i32, align 4
  store ptr %0, ptr %5, align 8
  store ptr %1, ptr %6, align 8
  store ptr %2, ptr %7, align 8
  store ptr %3, ptr %8, align 8
  call void @llvm.lifetime.start.p0(i64 8, ptr %9) #7
  %13 = load ptr, ptr %6, align 8
  %14 = getelementptr inbounds nuw %struct._fvalue_t, ptr %13, i32 0, i32 1
  store ptr %14, ptr %9, align 8
  call void @llvm.lifetime.start.p0(i64 8, ptr %10) #7
  %15 = load ptr, ptr %7, align 8
  %16 = getelementptr inbounds nuw %struct._fvalue_t, ptr %15, i32 0, i32 1
  store ptr %16, ptr %10, align 8
  call void @llvm.lifetime.start.p0(i64 4, ptr %11) #7
  call void @llvm.lifetime.start.p0(i64 4, ptr %12) #7
  store i32 0, ptr %12, align 4
  %17 = load ptr, ptr %9, align 8
  %18 = getelementptr inbounds nuw %struct.ipv6_addr_and_prefix, ptr %17, i32 0, i32 1
  %19 = load i32, ptr %18, align 4
  %20 = load ptr, ptr %10, align 8
  %21 = getelementptr inbounds nuw %struct.ipv6_addr_and_prefix, ptr %20, i32 0, i32 1
  %22 = load i32, ptr %21, align 4
  %23 = icmp ult i32 %19, %22
  br i1 %23, label %24, label %28

24:                                               ; preds = %4
  %25 = load ptr, ptr %9, align 8
  %26 = getelementptr inbounds nuw %struct.ipv6_addr_and_prefix, ptr %25, i32 0, i32 1
  %27 = load i32, ptr %26, align 4
  br label %32

28:                                               ; preds = %4
  %29 = load ptr, ptr %10, align 8
  %30 = getelementptr inbounds nuw %struct.ipv6_addr_and_prefix, ptr %29, i32 0, i32 1
  %31 = load i32, ptr %30, align 4
  br label %32

32:                                               ; preds = %28, %24
  %33 = phi i32 [ %27, %24 ], [ %31, %28 ]
  store i32 %33, ptr %11, align 4
  %34 = load i32, ptr %11, align 4
  %35 = icmp ult i32 %34, 128
  br i1 %35, label %36, label %38

36:                                               ; preds = %32
  %37 = load i32, ptr %11, align 4
  br label %39

38:                                               ; preds = %32
  br label %39

39:                                               ; preds = %38, %36
  %40 = phi i32 [ %37, %36 ], [ 128, %38 ]
  store i32 %40, ptr %11, align 4
  br label %41

41:                                               ; preds = %44, %39
  %42 = load i32, ptr %11, align 4
  %43 = icmp uge i32 %42, 8
  br i1 %43, label %44, label %74

44:                                               ; preds = %41
  %45 = load ptr, ptr %9, align 8
  %46 = getelementptr inbounds nuw %struct.ipv6_addr_and_prefix, ptr %45, i32 0, i32 0
  %47 = getelementptr inbounds nuw %struct.e_in6_addr, ptr %46, i32 0, i32 0
  %48 = load i32, ptr %12, align 4
  %49 = sext i32 %48 to i64
  %50 = getelementptr [16 x i8], ptr %47, i64 0, i64 %49
  %51 = load i8, ptr %50, align 1
  %52 = zext i8 %51 to i32
  %53 = load ptr, ptr %10, align 8
  %54 = getelementptr inbounds nuw %struct.ipv6_addr_and_prefix, ptr %53, i32 0, i32 0
  %55 = getelementptr inbounds nuw %struct.e_in6_addr, ptr %54, i32 0, i32 0
  %56 = load i32, ptr %12, align 4
  %57 = sext i32 %56 to i64
  %58 = getelementptr [16 x i8], ptr %55, i64 0, i64 %57
  %59 = load i8, ptr %58, align 1
  %60 = zext i8 %59 to i32
  %61 = and i32 %52, %60
  %62 = trunc i32 %61 to i8
  %63 = load ptr, ptr %5, align 8
  %64 = getelementptr inbounds nuw %struct._fvalue_t, ptr %63, i32 0, i32 1
  %65 = getelementptr inbounds nuw %struct.ipv6_addr_and_prefix, ptr %64, i32 0, i32 0
  %66 = getelementptr inbounds nuw %struct.e_in6_addr, ptr %65, i32 0, i32 0
  %67 = load i32, ptr %12, align 4
  %68 = sext i32 %67 to i64
  %69 = getelementptr [16 x i8], ptr %66, i64 0, i64 %68
  store i8 %62, ptr %69, align 1
  %70 = load i32, ptr %11, align 4
  %71 = sub i32 %70, 8
  store i32 %71, ptr %11, align 4
  %72 = load i32, ptr %12, align 4
  %73 = add i32 %72, 1
  store i32 %73, ptr %12, align 4
  br label %41, !llvm.loop !8

74:                                               ; preds = %41
  %75 = load i32, ptr %11, align 4
  %76 = icmp ne i32 %75, 0
  br i1 %76, label %77, label %109

77:                                               ; preds = %74
  %78 = load ptr, ptr %9, align 8
  %79 = getelementptr inbounds nuw %struct.ipv6_addr_and_prefix, ptr %78, i32 0, i32 0
  %80 = getelementptr inbounds nuw %struct.e_in6_addr, ptr %79, i32 0, i32 0
  %81 = load i32, ptr %12, align 4
  %82 = sext i32 %81 to i64
  %83 = getelementptr [16 x i8], ptr %80, i64 0, i64 %82
  %84 = load i8, ptr %83, align 1
  %85 = zext i8 %84 to i32
  %86 = load ptr, ptr %10, align 8
  %87 = getelementptr inbounds nuw %struct.ipv6_addr_and_prefix, ptr %86, i32 0, i32 0
  %88 = getelementptr inbounds nuw %struct.e_in6_addr, ptr %87, i32 0, i32 0
  %89 = load i32, ptr %12, align 4
  %90 = sext i32 %89 to i64
  %91 = getelementptr [16 x i8], ptr %88, i64 0, i64 %90
  %92 = load i8, ptr %91, align 1
  %93 = zext i8 %92 to i32
  %94 = and i32 %85, %93
  %95 = load i32, ptr %11, align 4
  %96 = zext i32 %95 to i64
  %97 = getelementptr [9 x i8], ptr @bitmasks, i64 0, i64 %96
  %98 = load i8, ptr %97, align 1
  %99 = zext i8 %98 to i32
  %100 = and i32 %94, %99
  %101 = trunc i32 %100 to i8
  %102 = load ptr, ptr %5, align 8
  %103 = getelementptr inbounds nuw %struct._fvalue_t, ptr %102, i32 0, i32 1
  %104 = getelementptr inbounds nuw %struct.ipv6_addr_and_prefix, ptr %103, i32 0, i32 0
  %105 = getelementptr inbounds nuw %struct.e_in6_addr, ptr %104, i32 0, i32 0
  %106 = load i32, ptr %12, align 4
  %107 = sext i32 %106 to i64
  %108 = getelementptr [16 x i8], ptr %105, i64 0, i64 %107
  store i8 %101, ptr %108, align 1
  br label %109

109:                                              ; preds = %77, %74
  call void @llvm.lifetime.end.p0(i64 4, ptr %12) #7
  call void @llvm.lifetime.end.p0(i64 4, ptr %11) #7
  call void @llvm.lifetime.end.p0(i64 8, ptr %10) #7
  call void @llvm.lifetime.end.p0(i64 8, ptr %9) #7
  ret i32 0
}