; Function Attrs: nofree norecurse nosync nounwind null_pointer_is_valid sspstrong memory(argmem: readwrite) uwtable
define internal noundef i32 @bitwise_and(ptr noundef writeonly captures(none) %0, ptr noundef readonly captures(none) %1, ptr noundef readonly captures(none) %2, ptr readnone captures(none) %3) #3 {
  %5 = getelementptr inbounds nuw i8, ptr %1, i64 8
  %6 = getelementptr inbounds nuw i8, ptr %2, i64 8
  %7 = getelementptr inbounds nuw i8, ptr %1, i64 24
  %8 = load i32, ptr %7, align 4
  %9 = getelementptr inbounds nuw i8, ptr %2, i64 24
  %10 = load i32, ptr %9, align 4
  %. = tail call i32 @llvm.umin.i32(i32 %8, i32 %10)
  %11 = tail call i32 @llvm.umin.i32(i32 %., i32 128)
  %12 = icmp ugt i32 %., 7
  br i1 %12, label %.lr.ph, label %._crit_edge

.lr.ph:                                           ; preds = %4
  %13 = getelementptr inbounds nuw i8, ptr %0, i64 8
  br label %14

14:                                               ; preds = %.lr.ph, %14
  %indvars.iv = phi i64 [ 0, %.lr.ph ], [ %indvars.iv.next, %14 ]
  %.02427 = phi i32 [ %11, %.lr.ph ], [ %21, %14 ]
  %15 = getelementptr [16 x i8], ptr %5, i64 0, i64 %indvars.iv
  %16 = load i8, ptr %15, align 1
  %17 = getelementptr [16 x i8], ptr %6, i64 0, i64 %indvars.iv
  %18 = load i8, ptr %17, align 1
  %19 = and i8 %18, %16
  %20 = getelementptr [16 x i8], ptr %13, i64 0, i64 %indvars.iv
  store i8 %19, ptr %20, align 1
  %21 = add i32 %.02427, -8
  %indvars.iv.next = add nuw nsw i64 %indvars.iv, 1
  %22 = icmp ugt i32 %21, 7
  br i1 %22, label %14, label %._crit_edge.loopexit, !llvm.loop !6

._crit_edge.loopexit:                             ; preds = %14
  %sext = shl i64 %indvars.iv.next, 32
  %23 = ashr exact i64 %sext, 32
  br label %._crit_edge

._crit_edge:                                      ; preds = %._crit_edge.loopexit, %4
  %.024.lcssa = phi i32 [ %11, %4 ], [ %21, %._crit_edge.loopexit ]
  %.0.lcssa = phi i64 [ 0, %4 ], [ %23, %._crit_edge.loopexit ]
  %.not = icmp eq i32 %.024.lcssa, 0
  br i1 %.not, label %36, label %24

24:                                               ; preds = %._crit_edge
  %25 = getelementptr [16 x i8], ptr %5, i64 0, i64 %.0.lcssa
  %26 = load i8, ptr %25, align 1
  %27 = getelementptr [16 x i8], ptr %6, i64 0, i64 %.0.lcssa
  %28 = load i8, ptr %27, align 1
  %29 = and i8 %28, %26
  %30 = zext nneg i32 %.024.lcssa to i64
  %31 = getelementptr [9 x i8], ptr @bitmasks, i64 0, i64 %30
  %32 = load i8, ptr %31, align 1
  %33 = and i8 %29, %32
  %34 = getelementptr inbounds nuw i8, ptr %0, i64 8
  %35 = getelementptr [16 x i8], ptr %34, i64 0, i64 %.0.lcssa
  store i8 %33, ptr %35, align 1
  br label %36

36:                                               ; preds = %24, %._crit_edge
  ret i32 0
}